target datalayout = "e-m:e-p270:32:32-p271:32:32-p272:64:64-i64:64-i128:128-f80:128-n8:16:32:64-S128"
target triple = "x86_64-pc-linux-gnu"

%struct.SplitCodebookParams = type { i32, i32, ptr, i32, i32 }
%struct.GetBitContext = type { ptr, ptr, i32, i32, i32 }

; Function Attrs: alwaysinline nounwind willreturn memory(none) uwtable
define internal i32 @av_bswap32(i32 noundef %0) #10 {
  %2 = alloca i32, align 4
  store i32 %0, ptr %2, align 4, !tbaa !38
  %3 = load i32, ptr %2, align 4, !tbaa !38
  %4 = shl i32 %3, 8
  %5 = and i32 %4, 65280
  %6 = load i32, ptr %2, align 4, !tbaa !38
  %7 = lshr i32 %6, 8
  %8 = and i32 %7, 255
  %9 = or i32 %5, %8
  %10 = shl i32 %9, 16
  %11 = load i32, ptr %2, align 4, !tbaa !38
  %12 = lshr i32 %11, 16
  %13 = shl i32 %12, 8
  %14 = and i32 %13, 65280
  %15 = load i32, ptr %2, align 4, !tbaa !38
  %16 = lshr i32 %15, 16
  %17 = lshr i32 %16, 8
  %18 = and i32 %17, 255
  %19 = or i32 %14, %18
  %20 = or i32 %10, %19
  ret i32 %20
}

; Function Attrs: inlinehint nounwind uwtable
define internal i32 @get_bits(ptr noundef %0, i32 noundef %1) #6 {
  %3 = alloca ptr, align 8
  %4 = alloca i32, align 4
  %5 = alloca i32, align 4
  %6 = alloca i32, align 4
  %7 = alloca i32, align 4
  %8 = alloca i32, align 4
  store ptr %0, ptr %3, align 8, !tbaa !124
  store i32 %1, ptr %4, align 4, !tbaa !38
  call void @llvm.lifetime.start.p0(i64 4, ptr %5) #11
  call void @llvm.lifetime.start.p0(i64 4, ptr %6) #11
  %9 = load ptr, ptr %3, align 8, !tbaa !124
  %10 = getelementptr inbounds nuw %struct.GetBitContext, ptr %9, i32 0, i32 2
  %11 = load i32, ptr %10, align 8, !tbaa !163
  store i32 %11, ptr %6, align 4, !tbaa !38
  call void @llvm.lifetime.start.p0(i64 4, ptr %7) #11
  call void @llvm.lifetime.start.p0(i64 4, ptr %8) #11
  %12 = load ptr, ptr %3, align 8, !tbaa !124
  %13 = getelementptr inbounds nuw %struct.GetBitContext, ptr %12, i32 0, i32 4
  %14 = load i32, ptr %13, align 8, !tbaa !165
  store i32 %14, ptr %8, align 4, !tbaa !38
  %15 = load ptr, ptr %3, align 8, !tbaa !124
  %16 = getelementptr inbounds nuw %struct.GetBitContext, ptr %15, i32 0, i32 0
  %17 = load ptr, ptr %16, align 8, !tbaa !164
  %18 = load i32, ptr %6, align 4, !tbaa !38
  %19 = lshr i32 %18, 3
  %20 = zext i32 %19 to i64
  %21 = getelementptr inbounds nuw i8, ptr %17, i64 %20
  %22 = load i32, ptr %21, align 1, !tbaa !47
  %23 = call i32 @av_bswap32(i32 noundef %22) #13
  %24 = load i32, ptr %6, align 4, !tbaa !38
  %25 = and i32 %24, 7
  %26 = shl i32 %23, %25
  %27 = lshr i32 %26, 0
  store i32 %27, ptr %7, align 4, !tbaa !38
  %28 = load i32, ptr %7, align 4, !tbaa !38
  %29 = load i32, ptr %4, align 4, !tbaa !38
  %30 = sub nsw i32 32, %29
  %31 = lshr i32 %28, %30
  store i32 %31, ptr %5, align 4, !tbaa !38
  %32 = load i32, ptr %8, align 4, !tbaa !38
  %33 = load i32, ptr %6, align 4, !tbaa !38
  %34 = load i32, ptr %4, align 4, !tbaa !38
  %35 = add i32 %33, %34
  %36 = icmp ugt i32 %32, %35
  br i1 %36, label %37, label %41

37:                                               ; preds = %2
  %38 = load i32, ptr %6, align 4, !tbaa !38
  %39 = load i32, ptr %4, align 4, !tbaa !38
  %40 = add i32 %38, %39
  br label %43

41:                                               ; preds = %2
  %42 = load i32, ptr %8, align 4, !tbaa !38
  br label %43

43:                                               ; preds = %41, %37
  %44 = phi i32 [ %40, %37 ], [ %42, %41 ]
  store i32 %44, ptr %6, align 4, !tbaa !38
  %45 = load i32, ptr %6, align 4, !tbaa !38
  %46 = load ptr, ptr %3, align 8, !tbaa !124
  %47 = getelementptr inbounds nuw %struct.GetBitContext, ptr %46, i32 0, i32 2
  store i32 %45, ptr %47, align 8, !tbaa !163
  %48 = load i32, ptr %5, align 4, !tbaa !38
  call void @llvm.lifetime.end.p0(i64 4, ptr %8) #11
  call void @llvm.lifetime.end.p0(i64 4, ptr %7) #11
  call void @llvm.lifetime.end.p0(i64 4, ptr %6) #11
  call void @llvm.lifetime.end.p0(i64 4, ptr %5) #11
  ret i32 %48
}

; Function Attrs: alwaysinline nounwind uwtable
define internal i32 @get_bitsz(ptr noundef %0, i32 noundef %1) #4 {
  %3 = alloca ptr, align 8
  %4 = alloca i32, align 4
  store ptr %0, ptr %3, align 8, !tbaa !124
  store i32 %1, ptr %4, align 4, !tbaa !38
  %5 = load i32, ptr %4, align 4, !tbaa !38
  %6 = icmp ne i32 %5, 0
  br i1 %6, label %7, label %11

7:                                                ; preds = %2
  %8 = load ptr, ptr %3, align 8, !tbaa !124
  %9 = load i32, ptr %4, align 4, !tbaa !38
  %10 = call i32 @get_bits(ptr noundef %8, i32 noundef %9)
  br label %12

11:                                               ; preds = %2
  br label %12

12:                                               ; preds = %11, %7
  %13 = phi i32 [ %10, %7 ], [ 0, %11 ]
  ret i32 %13
}

; Function Attrs: inlinehint nounwind uwtable
define internal i32 @get_bits1(ptr noundef %0) #6 {
  %2 = alloca ptr, align 8
  %3 = alloca i32, align 4
  %4 = alloca i8, align 1
  store ptr %0, ptr %2, align 8, !tbaa !124
  call void @llvm.lifetime.start.p0(i64 4, ptr %3) #11
  %5 = load ptr, ptr %2, align 8, !tbaa !124
  %6 = getelementptr inbounds nuw %struct.GetBitContext, ptr %5, i32 0, i32 2
  %7 = load i32, ptr %6, align 8, !tbaa !163
  store i32 %7, ptr %3, align 4, !tbaa !38
  call void @llvm.lifetime.start.p0(i64 1, ptr %4) #11
  %8 = load ptr, ptr %2, align 8, !tbaa !124
  %9 = getelementptr inbounds nuw %struct.GetBitContext, ptr %8, i32 0, i32 0
  %10 = load ptr, ptr %9, align 8, !tbaa !164
  %11 = load i32, ptr %3, align 4, !tbaa !38
  %12 = lshr i32 %11, 3
  %13 = zext i32 %12 to i64
  %14 = getelementptr inbounds nuw i8, ptr %10, i64 %13
  %15 = load i8, ptr %14, align 1, !tbaa !47
  store i8 %15, ptr %4, align 1, !tbaa !47
  %16 = load i32, ptr %3, align 4, !tbaa !38
  %17 = and i32 %16, 7
  %18 = load i8, ptr %4, align 1, !tbaa !47
  %19 = zext i8 %18 to i32
  %20 = shl i32 %19, %17
  %21 = trunc i32 %20 to i8
  store i8 %21, ptr %4, align 1, !tbaa !47
  %22 = load i8, ptr %4, align 1, !tbaa !47
  %23 = zext i8 %22 to i32
  %24 = ashr i32 %23, 7
  %25 = trunc i32 %24 to i8
  store i8 %25, ptr %4, align 1, !tbaa !47
  %26 = load ptr, ptr %2, align 8, !tbaa !124
  %27 = getelementptr inbounds nuw %struct.GetBitContext, ptr %26, i32 0, i32 2
  %28 = load i32, ptr %27, align 8, !tbaa !163
  %29 = load ptr, ptr %2, align 8, !tbaa !124
  %30 = getelementptr inbounds nuw %struct.GetBitContext, ptr %29, i32 0, i32 4
  %31 = load i32, ptr %30, align 8, !tbaa !165
  %32 = icmp slt i32 %28, %31
  br i1 %32, label %33, label %36

33:                                               ; preds = %1
  %34 = load i32, ptr %3, align 4, !tbaa !38
  %35 = add i32 %34, 1
  store i32 %35, ptr %3, align 4, !tbaa !38
  br label %36

36:                                               ; preds = %33, %1
  %37 = load i32, ptr %3, align 4, !tbaa !38
  %38 = load ptr, ptr %2, align 8, !tbaa !124
  %39 = getelementptr inbounds nuw %struct.GetBitContext, ptr %38, i32 0, i32 2
  store i32 %37, ptr %39, align 8, !tbaa !163
  %40 = load i8, ptr %4, align 1, !tbaa !47
  %41 = zext i8 %40 to i32
  call void @llvm.lifetime.end.p0(i64 1, ptr %4) #11
  call void @llvm.lifetime.end.p0(i64 4, ptr %3) #11
  ret i32 %41
}

; Function Attrs: nounwind uwtable
define internal void @split_cb_shape_sign_unquant(ptr noundef %0, ptr noundef %1, i32 noundef %2, ptr noundef %3, ptr noundef %4) #1 {
  %6 = alloca ptr, align 8
  %7 = alloca ptr, align 8
  %8 = alloca i32, align 4
  %9 = alloca ptr, align 8
  %10 = alloca ptr, align 8
  %11 = alloca i32, align 4
  %12 = alloca i32, align 4
  %13 = alloca i32, align 4
  %14 = alloca i32, align 4
  %15 = alloca ptr, align 8
  %16 = alloca ptr, align 8
  %17 = alloca [10 x i32], align 16
  %18 = alloca [10 x i32], align 16
  %19 = alloca i32, align 4
  %20 = alloca i32, align 4
  %21 = alloca i32, align 4
  %22 = alloca float, align 4
  %23 = alloca i32, align 4
  store ptr %0, ptr %6, align 8, !tbaa !75
  store ptr %1, ptr %7, align 8, !tbaa !123
  store i32 %2, ptr %8, align 4, !tbaa !38
  store ptr %3, ptr %9, align 8, !tbaa !124
  store ptr %4, ptr %10, align 8, !tbaa !61
  call void @llvm.lifetime.start.p0(i64 4, ptr %11) #11
  call void @llvm.lifetime.start.p0(i64 4, ptr %12) #11
  call void @llvm.lifetime.start.p0(i64 4, ptr %13) #11
  call void @llvm.lifetime.start.p0(i64 4, ptr %14) #11
  call void @llvm.lifetime.start.p0(i64 8, ptr %15) #11
  call void @llvm.lifetime.start.p0(i64 8, ptr %16) #11
  call void @llvm.lifetime.start.p0(i64 40, ptr %17) #11
  call void @llvm.lifetime.start.p0(i64 40, ptr %18) #11
  %24 = load ptr, ptr %7, align 8, !tbaa !123
  store ptr %24, ptr %15, align 8, !tbaa !209
  %25 = load ptr, ptr %15, align 8, !tbaa !209
  %26 = getelementptr inbounds nuw %struct.SplitCodebookParams, ptr %25, i32 0, i32 0
  %27 = load i32, ptr %26, align 8, !tbaa !211
  store i32 %27, ptr %11, align 4, !tbaa !38
  %28 = load ptr, ptr %15, align 8, !tbaa !209
  %29 = getelementptr inbounds nuw %struct.SplitCodebookParams, ptr %28, i32 0, i32 1
  %30 = load i32, ptr %29, align 4, !tbaa !213
  store i32 %30, ptr %12, align 4, !tbaa !38
  %31 = load ptr, ptr %15, align 8, !tbaa !209
  %32 = getelementptr inbounds nuw %struct.SplitCodebookParams, ptr %31, i32 0, i32 2
  %33 = load ptr, ptr %32, align 8, !tbaa !214
  store ptr %33, ptr %16, align 8, !tbaa !74
  %34 = load ptr, ptr %15, align 8, !tbaa !209
  %35 = getelementptr inbounds nuw %struct.SplitCodebookParams, ptr %34, i32 0, i32 4
  %36 = load i32, ptr %35, align 4, !tbaa !215
  store i32 %36, ptr %13, align 4, !tbaa !38
  %37 = load ptr, ptr %15, align 8, !tbaa !209
  %38 = getelementptr inbounds nuw %struct.SplitCodebookParams, ptr %37, i32 0, i32 3
  %39 = load i32, ptr %38, align 8, !tbaa !216
  store i32 %39, ptr %14, align 4, !tbaa !38
  call void @llvm.lifetime.start.p0(i64 4, ptr %19) #11
  store i32 0, ptr %19, align 4, !tbaa !38
  br label %40

40:                                               ; preds = %63, %5
  %41 = load i32, ptr %19, align 4, !tbaa !38
  %42 = load i32, ptr %12, align 4, !tbaa !38
  %43 = icmp slt i32 %41, %42
  br i1 %43, label %45, label %44

44:                                               ; preds = %40
  call void @llvm.lifetime.end.p0(i64 4, ptr %19) #11
  br label %66

45:                                               ; preds = %40
  %46 = load i32, ptr %13, align 4, !tbaa !38
  %47 = icmp ne i32 %46, 0
  br i1 %47, label %48, label %51

48:                                               ; preds = %45
  %49 = load ptr, ptr %9, align 8, !tbaa !124
  %50 = call i32 @get_bits1(ptr noundef %49)
  br label %52

51:                                               ; preds = %45
  br label %52

52:                                               ; preds = %51, %48
  %53 = phi i32 [ %50, %48 ], [ 0, %51 ]
  %54 = load i32, ptr %19, align 4, !tbaa !38
  %55 = sext i32 %54 to i64
  %56 = getelementptr inbounds [10 x i32], ptr %17, i64 0, i64 %55
  store i32 %53, ptr %56, align 4, !tbaa !38
  %57 = load ptr, ptr %9, align 8, !tbaa !124
  %58 = load i32, ptr %14, align 4, !tbaa !38
  %59 = call i32 @get_bitsz(ptr noundef %57, i32 noundef %58)
  %60 = load i32, ptr %19, align 4, !tbaa !38
  %61 = sext i32 %60 to i64
  %62 = getelementptr inbounds [10 x i32], ptr %18, i64 0, i64 %61
  store i32 %59, ptr %62, align 4, !tbaa !38
  br label %63

63:                                               ; preds = %52
  %64 = load i32, ptr %19, align 4, !tbaa !38
  %65 = add nsw i32 %64, 1
  store i32 %65, ptr %19, align 4, !tbaa !38
  br label %40, !llvm.loop !217

66:                                               ; preds = %44
  call void @llvm.lifetime.start.p0(i64 4, ptr %20) #11
  store i32 0, ptr %20, align 4, !tbaa !38
  br label %67

67:                                               ; preds = %115, %66
  %68 = load i32, ptr %20, align 4, !tbaa !38
  %69 = load i32, ptr %12, align 4, !tbaa !38
  %70 = icmp slt i32 %68, %69
  br i1 %70, label %72, label %71

71:                                               ; preds = %67
  store i32 5, ptr %21, align 4
  call void @llvm.lifetime.end.p0(i64 4, ptr %20) #11
  br label %118

72:                                               ; preds = %67
  call void @llvm.lifetime.start.p0(i64 4, ptr %22) #11
  %73 = load i32, ptr %20, align 4, !tbaa !38
  %74 = sext i32 %73 to i64
  %75 = getelementptr inbounds [10 x i32], ptr %17, i64 0, i64 %74
  %76 = load i32, ptr %75, align 4, !tbaa !38
  %77 = icmp ne i32 %76, 0
  %78 = select nsz i1 %77, float -1.000000e+00, float 1.000000e+00
  store float %78, ptr %22, align 4, !tbaa !64
  call void @llvm.lifetime.start.p0(i64 4, ptr %23) #11
  store i32 0, ptr %23, align 4, !tbaa !38
  br label %79

79:                                               ; preds = %111, %72
  %80 = load i32, ptr %23, align 4, !tbaa !38
  %81 = load i32, ptr %11, align 4, !tbaa !38
  %82 = icmp slt i32 %80, %81
  br i1 %82, label %84, label %83

83:                                               ; preds = %79
  store i32 8, ptr %21, align 4
  call void @llvm.lifetime.end.p0(i64 4, ptr %23) #11
  br label %114

84:                                               ; preds = %79
  %85 = load float, ptr %22, align 4, !tbaa !64
  %86 = fmul nsz float %85, 3.125000e-02
  %87 = load ptr, ptr %16, align 8, !tbaa !74
  %88 = load i32, ptr %20, align 4, !tbaa !38
  %89 = sext i32 %88 to i64
  %90 = getelementptr inbounds [10 x i32], ptr %18, i64 0, i64 %89
  %91 = load i32, ptr %90, align 4, !tbaa !38
  %92 = load i32, ptr %11, align 4, !tbaa !38
  %93 = mul nsw i32 %91, %92
  %94 = load i32, ptr %23, align 4, !tbaa !38
  %95 = add nsw i32 %93, %94
  %96 = sext i32 %95 to i64
  %97 = getelementptr inbounds i8, ptr %87, i64 %96
  %98 = load i8, ptr %97, align 1, !tbaa !47
  %99 = sext i8 %98 to i32
  %100 = sitofp i32 %99 to float
  %101 = load ptr, ptr %6, align 8, !tbaa !75
  %102 = load i32, ptr %11, align 4, !tbaa !38
  %103 = load i32, ptr %20, align 4, !tbaa !38
  %104 = mul nsw i32 %102, %103
  %105 = load i32, ptr %23, align 4, !tbaa !38
  %106 = add nsw i32 %104, %105
  %107 = sext i32 %106 to i64
  %108 = getelementptr inbounds float, ptr %101, i64 %107
  %109 = load float, ptr %108, align 4, !tbaa !64
  %110 = call nsz float @llvm.fmuladd.f32(float %86, float %100, float %109)
  store float %110, ptr %108, align 4, !tbaa !64
  br label %111

111:                                              ; preds = %84
  %112 = load i32, ptr %23, align 4, !tbaa !38
  %113 = add nsw i32 %112, 1
  store i32 %113, ptr %23, align 4, !tbaa !38
  br label %79, !llvm.loop !218

114:                                              ; preds = %83
  call void @llvm.lifetime.end.p0(i64 4, ptr %22) #11
  br label %115

115:                                              ; preds = %114
  %116 = load i32, ptr %20, align 4, !tbaa !38
  %117 = add nsw i32 %116, 1
  store i32 %117, ptr %20, align 4, !tbaa !38
  br label %67, !llvm.loop !219

118:                                              ; preds = %71
  call void @llvm.lifetime.end.p0(i64 40, ptr %18) #11
  call void @llvm.lifetime.end.p0(i64 40, ptr %17) #11
  call void @llvm.lifetime.end.p0(i64 8, ptr %16) #11
  call void @llvm.lifetime.end.p0(i64 8, ptr %15) #11
  call void @llvm.lifetime.end.p0(i64 4, ptr %14) #11
  call void @llvm.lifetime.end.p0(i64 4, ptr %13) #11
  call void @llvm.lifetime.end.p0(i64 4, ptr %12) #11
  call void @llvm.lifetime.end.p0(i64 4, ptr %11) #11
  ret void
}