; Function Attrs: nofree norecurse nosync nounwind memory(read, argmem: readwrite, inaccessiblemem: none) uwtable
define internal void @split_cb_shape_sign_unquant(ptr noundef captures(none) %0, ptr noundef readonly captures(none) %1, i32 %2, ptr noundef captures(none) %3, ptr readnone captures(none) %4) #9 {
  %6 = alloca [10 x i32], align 16
  %7 = alloca [10 x i32], align 16
  call void @llvm.lifetime.start.p0(i64 40, ptr nonnull %6) #12
  call void @llvm.lifetime.start.p0(i64 40, ptr nonnull %7) #12
  %8 = load i32, ptr %1, align 8, !tbaa !192
  %9 = getelementptr inbounds nuw i8, ptr %1, i64 4
  %10 = load i32, ptr %9, align 4, !tbaa !194
  %11 = getelementptr inbounds nuw i8, ptr %1, i64 8
  %12 = load ptr, ptr %11, align 8, !tbaa !195
  %13 = getelementptr inbounds nuw i8, ptr %1, i64 16
  %14 = load i32, ptr %13, align 8, !tbaa !196
  %15 = icmp sgt i32 %10, 0
  br i1 %15, label %.lr.ph, label %._crit_edge46

.lr.ph:                                           ; preds = %5
  %16 = getelementptr inbounds nuw i8, ptr %1, i64 20
  %17 = load i32, ptr %16, align 4, !tbaa !197
  %.not34 = icmp eq i32 %17, 0
  %18 = getelementptr inbounds nuw i8, ptr %3, i64 16
  %19 = getelementptr inbounds nuw i8, ptr %3, i64 24
  %.not.i = icmp eq i32 %14, 0
  %20 = sub nsw i32 32, %14
  br i1 %.not.i, label %.lr.ph.split.us, label %.lr.ph.split

.lr.ph.split.us:                                  ; preds = %.lr.ph
  br i1 %.not34, label %get_bitsz.exit.us.us.preheader, label %.lr.ph.split.us.split

get_bitsz.exit.us.us.preheader:                   ; preds = %.lr.ph.split.us
  %21 = zext nneg i32 %10 to i64
  %22 = shl nuw nsw i64 %21, 2
  call void @llvm.memset.p0.i64(ptr nonnull align 16 %6, i8 0, i64 %22, i1 false), !tbaa !113
  call void @llvm.memset.p0.i64(ptr nonnull align 16 %7, i8 0, i64 %22, i1 false), !tbaa !113
  br label %.lr.ph45

.lr.ph.split.us.split:                            ; preds = %.lr.ph.split.us
  %23 = load ptr, ptr %3, align 8, !tbaa !90
  %24 = load i32, ptr %19, align 8, !tbaa !92
  %.promoted40 = load i32, ptr %18, align 8, !tbaa !94
  %25 = zext nneg i32 %10 to i64
  %26 = shl nuw nsw i64 %25, 2
  call void @llvm.memset.p0.i64(ptr nonnull align 16 %7, i8 0, i64 %26, i1 false), !tbaa !113
  br label %get_bitsz.exit.us

get_bitsz.exit.us:                                ; preds = %get_bitsz.exit.us, %.lr.ph.split.us.split
  %indvars.iv57 = phi i64 [ %indvars.iv.next58, %get_bitsz.exit.us ], [ 0, %.lr.ph.split.us.split ]
  %spec.select.i.us41 = phi i32 [ %spec.select.i.us, %get_bitsz.exit.us ], [ %.promoted40, %.lr.ph.split.us.split ]
  %27 = lshr i32 %spec.select.i.us41, 3
  %28 = zext nneg i32 %27 to i64
  %29 = getelementptr inbounds nuw i8, ptr %23, i64 %28
  %30 = load i8, ptr %29, align 1, !tbaa !34
  %31 = icmp slt i32 %spec.select.i.us41, %24
  %32 = zext i1 %31 to i32
  %spec.select.i.us = add i32 %spec.select.i.us41, %32
  %33 = zext i8 %30 to i32
  %34 = and i32 %spec.select.i.us41, 7
  %35 = shl nuw nsw i32 %33, %34
  %36 = lshr i32 %35, 7
  store i32 %spec.select.i.us, ptr %18, align 8, !tbaa !94
  %37 = and i32 %36, 1
  %38 = getelementptr inbounds nuw [10 x i32], ptr %6, i64 0, i64 %indvars.iv57
  store i32 %37, ptr %38, align 4, !tbaa !113
  %indvars.iv.next58 = add nuw nsw i64 %indvars.iv57, 1
  %exitcond61.not = icmp eq i64 %indvars.iv.next58, %25
  br i1 %exitcond61.not, label %.lr.ph45, label %get_bitsz.exit.us, !llvm.loop !198

.lr.ph.split:                                     ; preds = %.lr.ph
  %39 = load i32, ptr %19, align 8, !tbaa !92
  %40 = load ptr, ptr %3, align 8, !tbaa !90
  %.promoted = load i32, ptr %18, align 8, !tbaa !94
  %41 = zext nneg i32 %10 to i64
  br i1 %.not34, label %get_bitsz.exit.us39.preheader, label %get_bitsz.exit

get_bitsz.exit.us39.preheader:                    ; preds = %.lr.ph.split
  %42 = shl nuw nsw i64 %41, 2
  call void @llvm.memset.p0.i64(ptr nonnull align 16 %6, i8 0, i64 %42, i1 false), !tbaa !113
  br label %get_bitsz.exit.us39

get_bitsz.exit.us39:                              ; preds = %get_bitsz.exit.us39.preheader, %get_bitsz.exit.us39
  %indvars.iv52 = phi i64 [ 0, %get_bitsz.exit.us39.preheader ], [ %indvars.iv.next53, %get_bitsz.exit.us39 ]
  %spec.select.i36.us = phi i32 [ %.promoted, %get_bitsz.exit.us39.preheader ], [ %52, %get_bitsz.exit.us39 ]
  %43 = lshr i32 %spec.select.i36.us, 3
  %44 = zext nneg i32 %43 to i64
  %45 = getelementptr inbounds nuw i8, ptr %40, i64 %44
  %46 = load i32, ptr %45, align 1, !tbaa !34
  %47 = tail call i32 @llvm.bswap.i32(i32 %46)
  %48 = and i32 %spec.select.i36.us, 7
  %49 = shl i32 %47, %48
  %50 = lshr i32 %49, %20
  %51 = add i32 %spec.select.i36.us, %14
  %52 = tail call i32 @llvm.umin.i32(i32 %39, i32 %51)
  store i32 %52, ptr %18, align 8, !tbaa !94
  %53 = getelementptr inbounds nuw [10 x i32], ptr %7, i64 0, i64 %indvars.iv52
  store i32 %50, ptr %53, align 4, !tbaa !113
  %indvars.iv.next53 = add nuw nsw i64 %indvars.iv52, 1
  %exitcond56.not = icmp eq i64 %indvars.iv.next53, %41
  br i1 %exitcond56.not, label %.lr.ph45, label %get_bitsz.exit.us39, !llvm.loop !198

.lr.ph45:                                         ; preds = %get_bitsz.exit, %get_bitsz.exit.us39, %get_bitsz.exit.us, %get_bitsz.exit.us.us.preheader
  %54 = icmp sgt i32 %8, 0
  br i1 %54, label %.lr.ph43.us.preheader, label %._crit_edge46

.lr.ph43.us.preheader:                            ; preds = %.lr.ph45
  %55 = zext nneg i32 %8 to i64
  %wide.trip.count73 = zext nneg i32 %10 to i64
  %wide.trip.count68 = zext nneg i32 %8 to i64
  br label %.lr.ph43.us

.lr.ph43.us:                                      ; preds = %.lr.ph43.us.preheader, %._crit_edge.us
  %indvars.iv70 = phi i64 [ 0, %.lr.ph43.us.preheader ], [ %indvars.iv.next71, %._crit_edge.us ]
  %56 = getelementptr inbounds nuw [10 x i32], ptr %6, i64 0, i64 %indvars.iv70
  %57 = load i32, ptr %56, align 4, !tbaa !113
  %.not.us = icmp eq i32 %57, 0
  %58 = select i1 %.not.us, float 3.125000e-02, float -3.125000e-02
  %59 = getelementptr inbounds nuw [10 x i32], ptr %7, i64 0, i64 %indvars.iv70
  %60 = load i32, ptr %59, align 4, !tbaa !113
  %61 = mul nsw i32 %60, %8
  %62 = mul nuw nsw i64 %indvars.iv70, %55
  %63 = sext i32 %61 to i64
  %invariant.gep = getelementptr i8, ptr %12, i64 %63
  %invariant.gep77 = getelementptr inbounds nuw float, ptr %0, i64 %62
  br label %64

64:                                               ; preds = %.lr.ph43.us, %64
  %indvars.iv65 = phi i64 [ 0, %.lr.ph43.us ], [ %indvars.iv.next66, %64 ]
  %gep = getelementptr i8, ptr %invariant.gep, i64 %indvars.iv65
  %65 = load i8, ptr %gep, align 1, !tbaa !34
  %66 = sitofp i8 %65 to float
  %gep78 = getelementptr inbounds nuw float, ptr %invariant.gep77, i64 %indvars.iv65
  %67 = load float, ptr %gep78, align 4, !tbaa !105
  %68 = tail call nsz float @llvm.fmuladd.f32(float %58, float %66, float %67)
  store float %68, ptr %gep78, align 4, !tbaa !105
  %indvars.iv.next66 = add nuw nsw i64 %indvars.iv65, 1
  %exitcond69.not = icmp eq i64 %indvars.iv.next66, %wide.trip.count68
  br i1 %exitcond69.not, label %._crit_edge.us, label %64, !llvm.loop !199

._crit_edge.us:                                   ; preds = %64
  %indvars.iv.next71 = add nuw nsw i64 %indvars.iv70, 1
  %exitcond74.not = icmp eq i64 %indvars.iv.next71, %wide.trip.count73
  br i1 %exitcond74.not, label %._crit_edge46, label %.lr.ph43.us, !llvm.loop !200

get_bitsz.exit:                                   ; preds = %.lr.ph.split, %get_bitsz.exit
  %indvars.iv = phi i64 [ %indvars.iv.next, %get_bitsz.exit ], [ 0, %.lr.ph.split ]
  %spec.select.i36 = phi i32 [ %90, %get_bitsz.exit ], [ %.promoted, %.lr.ph.split ]
  %69 = lshr i32 %spec.select.i36, 3
  %70 = zext nneg i32 %69 to i64
  %71 = getelementptr inbounds nuw i8, ptr %40, i64 %70
  %72 = load i8, ptr %71, align 1, !tbaa !34
  %73 = icmp slt i32 %spec.select.i36, %39
  %74 = zext i1 %73 to i32
  %spec.select.i = add i32 %spec.select.i36, %74
  %75 = zext i8 %72 to i32
  %76 = and i32 %spec.select.i36, 7
  %77 = shl nuw nsw i32 %75, %76
  %78 = lshr i32 %77, 7
  store i32 %spec.select.i, ptr %18, align 8, !tbaa !94
  %79 = and i32 %78, 1
  %80 = getelementptr inbounds nuw [10 x i32], ptr %6, i64 0, i64 %indvars.iv
  store i32 %79, ptr %80, align 4, !tbaa !113
  %81 = lshr i32 %spec.select.i, 3
  %82 = zext nneg i32 %81 to i64
  %83 = getelementptr inbounds nuw i8, ptr %40, i64 %82
  %84 = load i32, ptr %83, align 1, !tbaa !34
  %85 = tail call i32 @llvm.bswap.i32(i32 %84)
  %86 = and i32 %spec.select.i, 7
  %87 = shl i32 %85, %86
  %88 = lshr i32 %87, %20
  %89 = add i32 %spec.select.i, %14
  %90 = tail call i32 @llvm.umin.i32(i32 %39, i32 %89)
  store i32 %90, ptr %18, align 8, !tbaa !94
  %91 = getelementptr inbounds nuw [10 x i32], ptr %7, i64 0, i64 %indvars.iv
  store i32 %88, ptr %91, align 4, !tbaa !113
  %indvars.iv.next = add nuw nsw i64 %indvars.iv, 1
  %exitcond.not = icmp eq i64 %indvars.iv.next, %41
  br i1 %exitcond.not, label %.lr.ph45, label %get_bitsz.exit, !llvm.loop !198

._crit_edge46:                                    ; preds = %._crit_edge.us, %.lr.ph45, %5
  call void @llvm.lifetime.end.p0(i64 40, ptr nonnull %7) #12
  call void @llvm.lifetime.end.p0(i64 40, ptr nonnull %6) #12
  ret void
}